target datalayout = "e-m:e-p270:32:32-p271:32:32-p272:64:64-i64:64-i128:128-f80:128-n8:16:32:64-S128"
target triple = "x86_64-pc-linux-gnu"

%struct.strbuf = type { i64, i64, ptr }
%struct.note_data = type { i32, i32, ptr, %struct.strbuf, ptr, i64, i64 }
%struct.option = type { i32, i32, ptr, ptr, ptr, ptr, i32, ptr, i64, ptr, i64, ptr }
%struct.object_id = type { [32 x i8], i32 }
%struct.note_msg = type { i32, %struct.strbuf }

@the_repository = external global ptr, align 8
@.str.16 = private unnamed_addr constant [39 x i8] c"failed to resolve '%s' as a valid ref.\00", align 1
@.str.44 = private unnamed_addr constant [16 x i8] c"builtin/notes.c\00", align 1
@.str.49 = private unnamed_addr constant [41 x i8] c"option callback does not expect negation\00", align 1
@.str.50 = private unnamed_addr constant [33 x i8] c"negative growth in ALLOC_GROW_BY\00", align 1
@.str.51 = private unnamed_addr constant [27 x i8] c"size_t overflow: %lu * %lu\00", align 1
@.str.55 = private unnamed_addr constant [28 x i8] c"failed to read object '%s'.\00", align 1
@.str.56 = private unnamed_addr constant [49 x i8] c"cannot read note data from non-blob object '%s'.\00", align 1

; Function Attrs: inlinehint nounwind uwtable
define internal i64 @st_mult(i64 noundef %0, i64 noundef %1) #3 {
  %3 = alloca i64, align 8
  %4 = alloca i64, align 8
  store i64 %0, ptr %3, align 8, !tbaa !42
  store i64 %1, ptr %4, align 8, !tbaa !42
  %5 = load i64, ptr %3, align 8, !tbaa !42
  %6 = icmp ne i64 %5, 0
  br i1 %6, label %7, label %15

7:                                                ; preds = %2
  %8 = load i64, ptr %4, align 8, !tbaa !42
  %9 = load i64, ptr %3, align 8, !tbaa !42
  %10 = udiv i64 -1, %9
  %11 = icmp ugt i64 %8, %10
  br i1 %11, label %12, label %15

12:                                               ; preds = %7
  %13 = load i64, ptr %3, align 8, !tbaa !42
  %14 = load i64, ptr %4, align 8, !tbaa !42
  call void (ptr, ...) @die(ptr noundef @.str.51, i64 noundef %13, i64 noundef %14) #12
  unreachable

15:                                               ; preds = %7, %2
  %16 = load i64, ptr %3, align 8, !tbaa !42
  %17 = load i64, ptr %4, align 8, !tbaa !42
  %18 = mul i64 %16, %17
  ret i64 %18
}

; Function Attrs: nounwind uwtable
define internal i32 @parse_reuse_arg(ptr noundef %0, ptr noundef %1, i32 noundef %2) #0 {
  %4 = alloca ptr, align 8
  %5 = alloca ptr, align 8
  %6 = alloca i32, align 4
  %7 = alloca ptr, align 8
  %8 = alloca ptr, align 8
  %9 = alloca ptr, align 8
  %10 = alloca %struct.object_id, align 4
  %11 = alloca i32, align 4
  %12 = alloca i64, align 8
  %13 = alloca i64, align 8
  store ptr %0, ptr %4, align 8, !tbaa !66
  store ptr %1, ptr %5, align 8, !tbaa !11
  store i32 %2, ptr %6, align 4, !tbaa !4
  call void @llvm.lifetime.start.p0(i64 8, ptr %7) #11
  %14 = load ptr, ptr %4, align 8, !tbaa !66
  %15 = getelementptr inbounds nuw %struct.option, ptr %14, i32 0, i32 3
  %16 = load ptr, ptr %15, align 8, !tbaa !21
  store ptr %16, ptr %7, align 8, !tbaa !68
  call void @llvm.lifetime.start.p0(i64 8, ptr %8) #11
  %17 = call ptr @xmalloc(i64 noundef 32)
  store ptr %17, ptr %8, align 8, !tbaa !70
  call void @llvm.lifetime.start.p0(i64 8, ptr %9) #11
  call void @llvm.lifetime.start.p0(i64 36, ptr %10) #11
  call void @llvm.lifetime.start.p0(i64 4, ptr %11) #11
  call void @llvm.lifetime.start.p0(i64 8, ptr %12) #11
  br label %18

18:                                               ; preds = %3
  %19 = load i32, ptr %6, align 4, !tbaa !4
  %20 = icmp ne i32 %19, 0
  br i1 %20, label %21, label %22

21:                                               ; preds = %18
  call void (ptr, i32, ptr, ...) @BUG_fl(ptr noundef @.str.44, i32 noundef 316, ptr noundef @.str.49) #12
  unreachable

22:                                               ; preds = %18
  br label %23

23:                                               ; preds = %22
  br label %24

24:                                               ; preds = %23
  %25 = load ptr, ptr %8, align 8, !tbaa !70
  %26 = getelementptr inbounds nuw %struct.note_msg, ptr %25, i32 0, i32 1
  call void @strbuf_init(ptr noundef %26, i64 noundef 0)
  %27 = load ptr, ptr @the_repository, align 8, !tbaa !13
  %28 = load ptr, ptr %5, align 8, !tbaa !11
  %29 = call i32 @repo_get_oid(ptr noundef %27, ptr noundef %28, ptr noundef %10)
  %30 = icmp ne i32 %29, 0
  br i1 %30, label %31, label %34

31:                                               ; preds = %24
  %32 = call ptr @_(ptr noundef @.str.16)
  %33 = load ptr, ptr %5, align 8, !tbaa !11
  call void (ptr, ...) @die(ptr noundef %32, ptr noundef %33) #12
  unreachable

34:                                               ; preds = %24
  %35 = load ptr, ptr @the_repository, align 8, !tbaa !13
  %36 = call ptr @repo_read_object_file(ptr noundef %35, ptr noundef %10, ptr noundef %11, ptr noundef %12)
  store ptr %36, ptr %9, align 8, !tbaa !11
  %37 = icmp ne ptr %36, null
  br i1 %37, label %41, label %38

38:                                               ; preds = %34
  %39 = call ptr @_(ptr noundef @.str.55)
  %40 = load ptr, ptr %5, align 8, !tbaa !11
  call void (ptr, ...) @die(ptr noundef %39, ptr noundef %40) #12
  unreachable

41:                                               ; preds = %34
  %42 = load i32, ptr %11, align 4, !tbaa !4
  %43 = icmp ne i32 %42, 3
  br i1 %43, label %44, label %51

44:                                               ; preds = %41
  %45 = load ptr, ptr %8, align 8, !tbaa !70
  %46 = getelementptr inbounds nuw %struct.note_msg, ptr %45, i32 0, i32 1
  call void @strbuf_release(ptr noundef %46)
  %47 = load ptr, ptr %9, align 8, !tbaa !11
  call void @free(ptr noundef %47) #11
  %48 = load ptr, ptr %8, align 8, !tbaa !70
  call void @free(ptr noundef %48) #11
  %49 = call ptr @_(ptr noundef @.str.56)
  %50 = load ptr, ptr %5, align 8, !tbaa !11
  call void (ptr, ...) @die(ptr noundef %49, ptr noundef %50) #12
  unreachable

51:                                               ; preds = %41
  %52 = load ptr, ptr %8, align 8, !tbaa !70
  %53 = getelementptr inbounds nuw %struct.note_msg, ptr %52, i32 0, i32 1
  %54 = load ptr, ptr %9, align 8, !tbaa !11
  %55 = load i64, ptr %12, align 8, !tbaa !42
  call void @strbuf_add(ptr noundef %53, ptr noundef %54, i64 noundef %55)
  %56 = load ptr, ptr %9, align 8, !tbaa !11
  call void @free(ptr noundef %56) #11
  %57 = load i64, ptr %12, align 8, !tbaa !42
  %58 = load ptr, ptr %8, align 8, !tbaa !70
  %59 = getelementptr inbounds nuw %struct.note_msg, ptr %58, i32 0, i32 1
  %60 = getelementptr inbounds nuw %struct.strbuf, ptr %59, i32 0, i32 1
  store i64 %57, ptr %60, align 8, !tbaa !77
  br label %61

61:                                               ; preds = %51
  call void @llvm.lifetime.start.p0(i64 8, ptr %13) #11
  %62 = load ptr, ptr %7, align 8, !tbaa !68
  %63 = getelementptr inbounds nuw %struct.note_data, ptr %62, i32 0, i32 5
  %64 = load i64, ptr %63, align 8, !tbaa !36
  %65 = add i64 %64, 1
  store i64 %65, ptr %13, align 8, !tbaa !42
  %66 = load i64, ptr %13, align 8, !tbaa !42
  %67 = load ptr, ptr %7, align 8, !tbaa !68
  %68 = getelementptr inbounds nuw %struct.note_data, ptr %67, i32 0, i32 5
  %69 = load i64, ptr %68, align 8, !tbaa !36
  %70 = icmp ult i64 %66, %69
  br i1 %70, label %71, label %72

71:                                               ; preds = %61
  call void (ptr, i32, ptr, ...) @BUG_fl(ptr noundef @.str.44, i32 noundef 334, ptr noundef @.str.50) #12
  unreachable

72:                                               ; preds = %61
  br label %73

73:                                               ; preds = %72
  %74 = load i64, ptr %13, align 8, !tbaa !42
  %75 = load ptr, ptr %7, align 8, !tbaa !68
  %76 = getelementptr inbounds nuw %struct.note_data, ptr %75, i32 0, i32 6
  %77 = load i64, ptr %76, align 8, !tbaa !72
  %78 = icmp ugt i64 %74, %77
  br i1 %78, label %79, label %112

79:                                               ; preds = %73
  %80 = load ptr, ptr %7, align 8, !tbaa !68
  %81 = getelementptr inbounds nuw %struct.note_data, ptr %80, i32 0, i32 6
  %82 = load i64, ptr %81, align 8, !tbaa !72
  %83 = add i64 %82, 16
  %84 = mul i64 %83, 3
  %85 = udiv i64 %84, 2
  %86 = load i64, ptr %13, align 8, !tbaa !42
  %87 = icmp ult i64 %85, %86
  br i1 %87, label %88, label %92

88:                                               ; preds = %79
  %89 = load i64, ptr %13, align 8, !tbaa !42
  %90 = load ptr, ptr %7, align 8, !tbaa !68
  %91 = getelementptr inbounds nuw %struct.note_data, ptr %90, i32 0, i32 6
  store i64 %89, ptr %91, align 8, !tbaa !72
  br label %101

92:                                               ; preds = %79
  %93 = load ptr, ptr %7, align 8, !tbaa !68
  %94 = getelementptr inbounds nuw %struct.note_data, ptr %93, i32 0, i32 6
  %95 = load i64, ptr %94, align 8, !tbaa !72
  %96 = add i64 %95, 16
  %97 = mul i64 %96, 3
  %98 = udiv i64 %97, 2
  %99 = load ptr, ptr %7, align 8, !tbaa !68
  %100 = getelementptr inbounds nuw %struct.note_data, ptr %99, i32 0, i32 6
  store i64 %98, ptr %100, align 8, !tbaa !72
  br label %101

101:                                              ; preds = %92, %88
  %102 = load ptr, ptr %7, align 8, !tbaa !68
  %103 = getelementptr inbounds nuw %struct.note_data, ptr %102, i32 0, i32 4
  %104 = load ptr, ptr %103, align 8, !tbaa !73
  %105 = load ptr, ptr %7, align 8, !tbaa !68
  %106 = getelementptr inbounds nuw %struct.note_data, ptr %105, i32 0, i32 6
  %107 = load i64, ptr %106, align 8, !tbaa !72
  %108 = call i64 @st_mult(i64 noundef 8, i64 noundef %107)
  %109 = call ptr @xrealloc(ptr noundef %104, i64 noundef %108)
  %110 = load ptr, ptr %7, align 8, !tbaa !68
  %111 = getelementptr inbounds nuw %struct.note_data, ptr %110, i32 0, i32 4
  store ptr %109, ptr %111, align 8, !tbaa !73
  br label %112

112:                                              ; preds = %101, %73
  br label %113

113:                                              ; preds = %112
  br label %114

114:                                              ; preds = %113
  %115 = load ptr, ptr %7, align 8, !tbaa !68
  %116 = getelementptr inbounds nuw %struct.note_data, ptr %115, i32 0, i32 4
  %117 = load ptr, ptr %116, align 8, !tbaa !73
  %118 = load ptr, ptr %7, align 8, !tbaa !68
  %119 = getelementptr inbounds nuw %struct.note_data, ptr %118, i32 0, i32 5
  %120 = load i64, ptr %119, align 8, !tbaa !36
  %121 = getelementptr inbounds nuw ptr, ptr %117, i64 %120
  call void @llvm.memset.p0.i64(ptr align 8 %121, i8 0, i64 8, i1 false)
  %122 = load i64, ptr %13, align 8, !tbaa !42
  %123 = load ptr, ptr %7, align 8, !tbaa !68
  %124 = getelementptr inbounds nuw %struct.note_data, ptr %123, i32 0, i32 5
  store i64 %122, ptr %124, align 8, !tbaa !36
  call void @llvm.lifetime.end.p0(i64 8, ptr %13) #11
  br label %125

125:                                              ; preds = %114
  br label %126

126:                                              ; preds = %125
  %127 = load ptr, ptr %8, align 8, !tbaa !70
  %128 = load ptr, ptr %7, align 8, !tbaa !68
  %129 = getelementptr inbounds nuw %struct.note_data, ptr %128, i32 0, i32 4
  %130 = load ptr, ptr %129, align 8, !tbaa !73
  %131 = load ptr, ptr %7, align 8, !tbaa !68
  %132 = getelementptr inbounds nuw %struct.note_data, ptr %131, i32 0, i32 5
  %133 = load i64, ptr %132, align 8, !tbaa !36
  %134 = sub i64 %133, 1
  %135 = getelementptr inbounds nuw ptr, ptr %130, i64 %134
  store ptr %127, ptr %135, align 8, !tbaa !70
  %136 = load ptr, ptr %8, align 8, !tbaa !70
  %137 = getelementptr inbounds nuw %struct.note_msg, ptr %136, i32 0, i32 0
  store i32 0, ptr %137, align 8, !tbaa !74
  call void @llvm.lifetime.end.p0(i64 8, ptr %12) #11
  call void @llvm.lifetime.end.p0(i64 4, ptr %11) #11
  call void @llvm.lifetime.end.p0(i64 36, ptr %10) #11
  call void @llvm.lifetime.end.p0(i64 8, ptr %9) #11
  call void @llvm.lifetime.end.p0(i64 8, ptr %8) #11
  call void @llvm.lifetime.end.p0(i64 8, ptr %7) #11
  ret i32 0
}