; Function Attrs: nounwind uwtable
define internal noundef i32 @parse_reuse_arg(ptr noundef readonly captures(none) %0, ptr noundef %1, i32 noundef %2) #0 {
  %4 = alloca %struct.object_id, align 4
  %5 = alloca i32, align 4
  %6 = alloca i64, align 8
  %7 = getelementptr inbounds nuw i8, ptr %0, i64 16
  %8 = load ptr, ptr %7, align 8, !tbaa !16
  %9 = tail call ptr @xmalloc(i64 noundef 32) #16
  call void @llvm.lifetime.start.p0(i64 36, ptr nonnull %4) #16
  call void @llvm.lifetime.start.p0(i64 4, ptr nonnull %5) #16
  call void @llvm.lifetime.start.p0(i64 8, ptr nonnull %6) #16
  %.not = icmp eq i32 %2, 0
  br i1 %.not, label %11, label %10

10:                                               ; preds = %3
  tail call void (ptr, i32, ptr, ...) @BUG_fl(ptr noundef nonnull @.str.44, i32 noundef 316, ptr noundef nonnull @.str.49) #17
  unreachable

11:                                               ; preds = %3
  %12 = getelementptr inbounds nuw i8, ptr %9, i64 8
  tail call void @strbuf_init(ptr noundef nonnull %12, i64 noundef 0) #16
  %13 = load ptr, ptr @the_repository, align 8, !tbaa !20
  %14 = call i32 @repo_get_oid(ptr noundef %13, ptr noundef %1, ptr noundef nonnull %4) #16
  %.not39 = icmp eq i32 %14, 0
  br i1 %.not39, label %17, label %15

15:                                               ; preds = %11
  %16 = call fastcc ptr @_(ptr noundef nonnull @.str.16)
  call void (ptr, ...) @die(ptr noundef %16, ptr noundef %1) #17
  unreachable

17:                                               ; preds = %11
  %18 = load ptr, ptr @the_repository, align 8, !tbaa !20
  %19 = call ptr @repo_read_object_file(ptr noundef %18, ptr noundef nonnull %4, ptr noundef nonnull %5, ptr noundef nonnull %6) #16
  %.not40 = icmp eq ptr %19, null
  br i1 %.not40, label %20, label %22

20:                                               ; preds = %17
  %21 = call fastcc ptr @_(ptr noundef nonnull @.str.55)
  call void (ptr, ...) @die(ptr noundef %21, ptr noundef %1) #17
  unreachable

22:                                               ; preds = %17
  %23 = load i32, ptr %5, align 4, !tbaa !24
  %.not41 = icmp eq i32 %23, 3
  br i1 %.not41, label %26, label %24

24:                                               ; preds = %22
  call void @strbuf_release(ptr noundef nonnull %12) #16
  call void @free(ptr noundef nonnull %19) #16
  call void @free(ptr noundef nonnull %9) #16
  %25 = call fastcc ptr @_(ptr noundef nonnull @.str.56)
  call void (ptr, ...) @die(ptr noundef %25, ptr noundef %1) #17
  unreachable

26:                                               ; preds = %22
  %27 = load i64, ptr %6, align 8, !tbaa !39
  call void @strbuf_add(ptr noundef nonnull %12, ptr noundef nonnull %19, i64 noundef %27) #16
  call void @free(ptr noundef nonnull %19) #16
  %28 = load i64, ptr %6, align 8, !tbaa !39
  %29 = getelementptr inbounds nuw i8, ptr %9, i64 16
  store i64 %28, ptr %29, align 8, !tbaa !86
  %30 = getelementptr inbounds nuw i8, ptr %8, i64 48
  %31 = load i64, ptr %30, align 8, !tbaa !28
  %32 = add i64 %31, 1
  %33 = icmp eq i64 %31, -1
  br i1 %33, label %34, label %35

34:                                               ; preds = %26
  call void (ptr, i32, ptr, ...) @BUG_fl(ptr noundef nonnull @.str.44, i32 noundef 334, ptr noundef nonnull @.str.50) #17
  unreachable

35:                                               ; preds = %26
  %36 = getelementptr inbounds nuw i8, ptr %8, i64 56
  %37 = load i64, ptr %36, align 8, !tbaa !79
  %38 = icmp ugt i64 %32, %37
  br i1 %38, label %39, label %._crit_edge

._crit_edge:                                      ; preds = %35
  %.phi.trans.insert = getelementptr inbounds nuw i8, ptr %8, i64 40
  %.pre = load ptr, ptr %.phi.trans.insert, align 8, !tbaa !80
  br label %49

39:                                               ; preds = %35
  %40 = mul i64 %37, 3
  %41 = add i64 %40, 48
  %42 = lshr i64 %41, 1
  %. = call i64 @llvm.umax.i64(i64 %42, i64 %32)
  store i64 %., ptr %36, align 8, !tbaa !79
  %43 = icmp ugt i64 %., 2305843009213693951
  br i1 %43, label %44, label %st_mult.exit

44:                                               ; preds = %39
  call void (ptr, ...) @die(ptr noundef nonnull @.str.51, i64 noundef 8, i64 noundef %.) #17
  unreachable

st_mult.exit:                                     ; preds = %39
  %45 = getelementptr inbounds nuw i8, ptr %8, i64 40
  %46 = load ptr, ptr %45, align 8, !tbaa !80
  %47 = shl nuw i64 %., 3
  %48 = call ptr @xrealloc(ptr noundef %46, i64 noundef %47) #16
  store ptr %48, ptr %45, align 8, !tbaa !80
  %.pre42 = load i64, ptr %30, align 8, !tbaa !28
  br label %49

49:                                               ; preds = %._crit_edge, %st_mult.exit
  %50 = phi i64 [ %31, %._crit_edge ], [ %.pre42, %st_mult.exit ]
  %51 = phi ptr [ %.pre, %._crit_edge ], [ %48, %st_mult.exit ]
  %52 = getelementptr inbounds nuw i8, ptr %8, i64 40
  %53 = getelementptr inbounds nuw ptr, ptr %51, i64 %50
  store i64 0, ptr %53, align 8
  store i64 %32, ptr %30, align 8, !tbaa !28
  %54 = load ptr, ptr %52, align 8, !tbaa !80
  %55 = getelementptr inbounds nuw ptr, ptr %54, i64 %31
  store ptr %9, ptr %55, align 8, !tbaa !81
  store i32 0, ptr %9, align 8, !tbaa !83
  call void @llvm.lifetime.end.p0(i64 8, ptr nonnull %6) #16
  call void @llvm.lifetime.end.p0(i64 4, ptr nonnull %5) #16
  call void @llvm.lifetime.end.p0(i64 36, ptr nonnull %4) #16
  ret i32 0
}